; ModuleID = '46/298.c'
source_filename = "46/298.c"
target datalayout = "e-m:e-p270:32:32-p271:32:32-p272:64:64-i64:64-f80:128-n8:16:32:64-S128"
target triple = "x86_64-pc-linux-gnu"

@.str = private unnamed_addr constant [6 x i8] c"%d %d\00", align 1
@.str.1 = private unnamed_addr constant [3 x i8] c"%d\00", align 1
@.str.2 = private unnamed_addr constant [4 x i8] c"%d\0A\00", align 1

; Function Attrs: noinline nounwind uwtable
define dso_local i32 @main() #0 {
  %1 = alloca i32, align 4
  %2 = alloca i32, align 4
  %3 = alloca i32, align 4
  %4 = alloca i32, align 4
  %5 = alloca [100 x [100 x i32]], align 16
  %6 = alloca i32, align 4
  %7 = alloca i32, align 4
  store i32 0, i32* %1, align 4
  %8 = call i32 (i8*, ...) @__isoc99_scanf(i8* getelementptr inbounds ([6 x i8], [6 x i8]* @.str, i64 0, i64 0), i32* %6, i32* %7)
  store i32 0, i32* %2, align 4
  br label %9

9:                                                ; preds = %30, %0
  %10 = load i32, i32* %2, align 4
  %11 = load i32, i32* %6, align 4
  %12 = icmp slt i32 %10, %11
  br i1 %12, label %13, label %33

13:                                               ; preds = %9
  store i32 0, i32* %3, align 4
  br label %14

14:                                               ; preds = %26, %13
  %15 = load i32, i32* %3, align 4
  %16 = load i32, i32* %7, align 4
  %17 = icmp slt i32 %15, %16
  br i1 %17, label %18, label %29

18:                                               ; preds = %14
  %19 = load i32, i32* %2, align 4
  %20 = sext i32 %19 to i64
  %21 = getelementptr inbounds [100 x [100 x i32]], [100 x [100 x i32]]* %5, i64 0, i64 %20
  %22 = load i32, i32* %3, align 4
  %23 = sext i32 %22 to i64
  %24 = getelementptr inbounds [100 x i32], [100 x i32]* %21, i64 0, i64 %23
  %25 = call i32 (i8*, ...) @__isoc99_scanf(i8* getelementptr inbounds ([3 x i8], [3 x i8]* @.str.1, i64 0, i64 0), i32* %24)
  br label %26

26:                                               ; preds = %18
  %27 = load i32, i32* %3, align 4
  %28 = add nsw i32 %27, 1
  store i32 %28, i32* %3, align 4
  br label %14

29:                                               ; preds = %14
  br label %30

30:                                               ; preds = %29
  %31 = load i32, i32* %2, align 4
  %32 = add nsw i32 %31, 1
  store i32 %32, i32* %2, align 4
  br label %9

33:                                               ; preds = %9
  store i32 0, i32* %4, align 4
  br label %34

34:                                               ; preds = %162, %33
  %35 = load i32, i32* %4, align 4
  %36 = load i32, i32* %7, align 4
  %37 = add nsw i32 %36, 1
  %38 = sdiv i32 %37, 2
  %39 = icmp slt i32 %35, %38
  br i1 %39, label %40, label %165

40:                                               ; preds = %34
  %41 = load i32, i32* %4, align 4
  store i32 %41, i32* %2, align 4
  %42 = load i32, i32* %4, align 4
  store i32 %42, i32* %3, align 4
  br label %43

43:                                               ; preds = %58, %40
  %44 = load i32, i32* %3, align 4
  %45 = load i32, i32* %7, align 4
  %46 = load i32, i32* %4, align 4
  %47 = sub nsw i32 %45, %46
  %48 = icmp slt i32 %44, %47
  br i1 %48, label %49, label %61

49:                                               ; preds = %43
  %50 = load i32, i32* %2, align 4
  %51 = sext i32 %50 to i64
  %52 = getelementptr inbounds [100 x [100 x i32]], [100 x [100 x i32]]* %5, i64 0, i64 %51
  %53 = load i32, i32* %3, align 4
  %54 = sext i32 %53 to i64
  %55 = getelementptr inbounds [100 x i32], [100 x i32]* %52, i64 0, i64 %54
  %56 = load i32, i32* %55, align 4
  %57 = call i32 (i8*, ...) @printf(i8* getelementptr inbounds ([4 x i8], [4 x i8]* @.str.2, i64 0, i64 0), i32 %56)
  br label %58

58:                                               ; preds = %49
  %59 = load i32, i32* %3, align 4
  %60 = add nsw i32 %59, 1
  store i32 %60, i32* %3, align 4
  br label %43

61:                                               ; preds = %43
  %62 = load i32, i32* %4, align 4
  %63 = mul nsw i32 2, %62
  %64 = load i32, i32* %6, align 4
  %65 = sub nsw i32 %64, 1
  %66 = icmp eq i32 %63, %65
  br i1 %66, label %67, label %68

67:                                               ; preds = %61
  br label %165

68:                                               ; preds = %61
  %69 = load i32, i32* %4, align 4
  %70 = add nsw i32 %69, 1
  store i32 %70, i32* %2, align 4
  %71 = load i32, i32* %7, align 4
  %72 = load i32, i32* %4, align 4
  %73 = sub nsw i32 %71, %72
  %74 = sub nsw i32 %73, 1
  store i32 %74, i32* %3, align 4
  br label %75

75:                                               ; preds = %90, %68
  %76 = load i32, i32* %2, align 4
  %77 = load i32, i32* %6, align 4
  %78 = load i32, i32* %4, align 4
  %79 = sub nsw i32 %77, %78
  %80 = icmp slt i32 %76, %79
  br i1 %80, label %81, label %93

81:                                               ; preds = %75
  %82 = load i32, i32* %2, align 4
  %83 = sext i32 %82 to i64
  %84 = getelementptr inbounds [100 x [100 x i32]], [100 x [100 x i32]]* %5, i64 0, i64 %83
  %85 = load i32, i32* %3, align 4
  %86 = sext i32 %85 to i64
  %87 = getelementptr inbounds [100 x i32], [100 x i32]* %84, i64 0, i64 %86
  %88 = load i32, i32* %87, align 4
  %89 = call i32 (i8*, ...) @printf(i8* getelementptr inbounds ([4 x i8], [4 x i8]* @.str.2, i64 0, i64 0), i32 %88)
  br label %90

90:                                               ; preds = %81
  %91 = load i32, i32* %2, align 4
  %92 = add nsw i32 %91, 1
  store i32 %92, i32* %2, align 4
  br label %75

93:                                               ; preds = %75
  %94 = load i32, i32* %4, align 4
  %95 = mul nsw i32 2, %94
  %96 = load i32, i32* %7, align 4
  %97 = sub nsw i32 %96, 1
  %98 = icmp eq i32 %95, %97
  br i1 %98, label %99, label %100

99:                                               ; preds = %93
  br label %165

100:                                              ; preds = %93
  %101 = load i32, i32* %6, align 4
  %102 = load i32, i32* %4, align 4
  %103 = sub nsw i32 %101, %102
  %104 = sub nsw i32 %103, 1
  store i32 %104, i32* %2, align 4
  %105 = load i32, i32* %7, align 4
  %106 = load i32, i32* %4, align 4
  %107 = sub nsw i32 %105, %106
  %108 = sub nsw i32 %107, 2
  store i32 %108, i32* %3, align 4
  br label %109

109:                                              ; preds = %122, %100
  %110 = load i32, i32* %3, align 4
  %111 = load i32, i32* %4, align 4
  %112 = icmp sge i32 %110, %111
  br i1 %112, label %113, label %125

113:                                              ; preds = %109
  %114 = load i32, i32* %2, align 4
  %115 = sext i32 %114 to i64
  %116 = getelementptr inbounds [100 x [100 x i32]], [100 x [100 x i32]]* %5, i64 0, i64 %115
  %117 = load i32, i32* %3, align 4
  %118 = sext i32 %117 to i64
  %119 = getelementptr inbounds [100 x i32], [100 x i32]* %116, i64 0, i64 %118
  %120 = load i32, i32* %119, align 4
  %121 = call i32 (i8*, ...) @printf(i8* getelementptr inbounds ([4 x i8], [4 x i8]* @.str.2, i64 0, i64 0), i32 %120)
  br label %122

122:                                              ; preds = %113
  %123 = load i32, i32* %3, align 4
  %124 = add nsw i32 %123, -1
  store i32 %124, i32* %3, align 4
  br label %109

125:                                              ; preds = %109
  %126 = load i32, i32* %4, align 4
  %127 = mul nsw i32 2, %126
  %128 = load i32, i32* %6, align 4
  %129 = sub nsw i32 %128, 2
  %130 = icmp eq i32 %127, %129
  br i1 %130, label %131, label %132

131:                                              ; preds = %125
  br label %165

132:                                              ; preds = %125
  %133 = load i32, i32* %4, align 4
  store i32 %133, i32* %3, align 4
  %134 = load i32, i32* %6, align 4
  %135 = load i32, i32* %4, align 4
  %136 = sub nsw i32 %134, %135
  %137 = sub nsw i32 %136, 2
  store i32 %137, i32* %2, align 4
  br label %138

138:                                              ; preds = %151, %132
  %139 = load i32, i32* %2, align 4
  %140 = load i32, i32* %4, align 4
  %141 = icmp sgt i32 %139, %140
  br i1 %141, label %142, label %154

142:                                              ; preds = %138
  %143 = load i32, i32* %2, align 4
  %144 = sext i32 %143 to i64
  %145 = getelementptr inbounds [100 x [100 x i32]], [100 x [100 x i32]]* %5, i64 0, i64 %144
  %146 = load i32, i32* %3, align 4
  %147 = sext i32 %146 to i64
  %148 = getelementptr inbounds [100 x i32], [100 x i32]* %145, i64 0, i64 %147
  %149 = load i32, i32* %148, align 4
  %150 = call i32 (i8*, ...) @printf(i8* getelementptr inbounds ([4 x i8], [4 x i8]* @.str.2, i64 0, i64 0), i32 %149)
  br label %151

151:                                              ; preds = %142
  %152 = load i32, i32* %2, align 4
  %153 = add nsw i32 %152, -1
  store i32 %153, i32* %2, align 4
  br label %138

154:                                              ; preds = %138
  %155 = load i32, i32* %4, align 4
  %156 = mul nsw i32 2, %155
  %157 = load i32, i32* %7, align 4
  %158 = sub nsw i32 %157, 2
  %159 = icmp eq i32 %156, %158
  br i1 %159, label %160, label %161

160:                                              ; preds = %154
  br label %165

161:                                              ; preds = %154
  br label %162

162:                                              ; preds = %161
  %163 = load i32, i32* %4, align 4
  %164 = add nsw i32 %163, 1
  store i32 %164, i32* %4, align 4
  br label %34

165:                                              ; preds = %160, %131, %99, %67, %34
  ret i32 0
}

declare dso_local i32 @__isoc99_scanf(i8*, ...) #1

declare dso_local i32 @printf(i8*, ...) #1


!llvm.module.flags = !{!0}
!llvm.ident = !{!1}

!0 = !{i32 1, !"wchar_size", i32 4}
!1 = !{!"clang version 10.0.0-4ubuntu1 "}
